target datalayout = "e-m:e-p270:32:32-p271:32:32-p272:64:64-i64:64-i128:128-f80:128-n8:16:32:64-S128"
target triple = "x86_64-pc-linux-gnu"

%struct.AddressSpace = type { %struct.rcu_head, ptr, ptr, ptr, i32, i32, ptr, %union.anon, %union.anon.0, i64, i64, %struct.QemuMutex, %struct.anon }
%struct.rcu_head = type { ptr, ptr }
%union.anon = type { %struct.QTailQLink }
%struct.QTailQLink = type { ptr, ptr }
%union.anon.0 = type { %struct.QTailQLink }
%struct.QemuMutex = type { %union.pthread_mutex_t, i8 }
%union.pthread_mutex_t = type { %struct.__pthread_mutex_s }
%struct.__pthread_mutex_s = type { i32, i32, i32, i32, i32, i16, i16, %struct.__pthread_internal_list }
%struct.__pthread_internal_list = type { ptr, ptr }
%struct.anon = type { ptr }
%struct.VirtIOPCIProxy = type { %struct.PCIDevice, %struct.MemoryRegion, %union.anon.7, %struct.MemoryRegion, %struct.MemoryRegion, %struct.AddressSpace, %struct.AddressSpace, i32, i32, i32, i32, i32, i32, i8, i8, i32, i16, i32, i32, i32, i32, [2 x i32], [1024 x %struct.VirtIOPCIQueue], ptr, i32, %struct.VirtioBusState }
%struct.PCIDevice = type { %struct.DeviceState, i8, i8, ptr, ptr, ptr, ptr, ptr, i32, %struct.PCIReqIDCache, [64 x i8], [7 x %struct.PCIIORegion], %struct.AddressSpace, %struct.MemoryRegion, %struct.MemoryRegion, ptr, ptr, [3 x ptr], i8, i8, i32, i8, i32, ptr, ptr, ptr, ptr, ptr, ptr, %struct.MemoryRegion, %struct.MemoryRegion, %struct.MemoryRegion, ptr, i8, i32, i8, %struct.PCIExpressDevice, ptr, ptr, i32, i8, %struct.MemoryRegion, i32, ptr, ptr, ptr, ptr, i16, %struct.DOECap, ptr, i32, i32 }
%struct.DeviceState = type { %struct.Object, ptr, ptr, i8, i8, i64, i32, i8, ptr, %struct.NamedGPIOListHead, %struct.NamedClockListHead, %struct.BusStateHead, i32, i32, i32, %struct.ResettableState, ptr, %struct.MemReentrancyGuard }
%struct.Object = type { ptr, ptr, ptr, i32, ptr }
%struct.NamedGPIOListHead = type { ptr }
%struct.NamedClockListHead = type { ptr }
%struct.BusStateHead = type { ptr }
%struct.ResettableState = type { i32, i8, i8 }
%struct.MemReentrancyGuard = type { i8 }
%struct.PCIReqIDCache = type { ptr, i32 }
%struct.PCIIORegion = type { i64, i64, i8, ptr, ptr }
%struct.PCIExpressDevice = type { i8, i8, i8, i16, %struct.PCIEAERLog, i16, i16, i16, %struct.PCIESriovPF, %struct.PCIESriovVF }
%struct.PCIEAERLog = type { i16, i16, ptr }
%struct.PCIESriovPF = type { i16, [7 x i8], ptr, ptr }
%struct.PCIESriovVF = type { ptr, i16 }
%struct.DOECap = type { ptr, i16, %struct.anon.4, %struct.anon.5, %struct.anon.6, ptr, ptr, i32, i32, i32, ptr, i16, i32 }
%struct.anon.4 = type { i8, i16 }
%struct.anon.5 = type { i8, i8, i8 }
%struct.anon.6 = type { i8, i8, i8, i8 }
%union.anon.7 = type { %struct.anon.8 }
%struct.anon.8 = type { %struct.VirtIOPCIRegion, %struct.VirtIOPCIRegion, %struct.VirtIOPCIRegion, %struct.VirtIOPCIRegion, %struct.VirtIOPCIRegion }
%struct.VirtIOPCIRegion = type { %struct.MemoryRegion, i32, i32, i32 }
%struct.MemoryRegion = type { %struct.Object, i8, i8, i8, i8, i8, i8, i8, i8, i8, i8, ptr, ptr, ptr, ptr, ptr, ptr, i32, i128, i64, ptr, i64, i8, i8, i8, i8, ptr, i64, i32, %union.anon.1, %union.anon.2, %union.anon.3, ptr, i32, ptr, ptr, i8 }
%union.anon.1 = type { %struct.QTailQLink }
%union.anon.2 = type { %struct.QTailQLink }
%union.anon.3 = type { %struct.QTailQLink }
%struct.VirtIOPCIQueue = type { i16, i8, i8, [2 x i32], [2 x i32], [2 x i32] }
%struct.VirtioBusState = type { %struct.BusState, i8, i32 }
%struct.BusState = type { %struct.Object, ptr, ptr, ptr, i32, i8, i8, i32, %union.BusChildHead, %struct.BusStateEntry, %struct.ResettableState }
%union.BusChildHead = type { %struct.QTailQLink }
%struct.BusStateEntry = type { ptr, ptr }
%struct.VirtIODevice = type { %struct.DeviceState, ptr, i8, i8, i16, i64, i64, i64, i64, ptr, i16, i32, i32, ptr, %struct.MemoryListener, i16, i8, i8, i8, i8, i8, i8, i8, i8, i8, ptr, ptr, i8, i8, ptr, ptr, %union.anon.12, %struct.EventNotifier, i8 }
%struct.MemoryListener = type { ptr, ptr, ptr, ptr, ptr, ptr, ptr, ptr, ptr, ptr, ptr, ptr, ptr, ptr, ptr, ptr, ptr, i32, ptr, ptr, %union.anon.10, %union.anon.11 }
%union.anon.10 = type { %struct.QTailQLink }
%union.anon.11 = type { %struct.QTailQLink }
%union.anon.12 = type { %struct.QTailQLink }
%struct.EventNotifier = type { i32, i32, i8 }
%struct.BusChild = type { %struct.rcu_head, ptr, i32, %union.anon.13 }
%union.anon.13 = type { %struct.QTailQLink }

@.str.43 = private unnamed_addr constant [105 x i8] c"/home/dtcxzyw/WorkSpace/Projects/compilers/llvm-opt-benchmark/bench/qemu/qemu/include/hw/virtio/virtio.h\00", align 1
@.str.45 = private unnamed_addr constant [10 x i8] c"fbit < 64\00", align 1
@__PRETTY_FUNCTION__.virtio_has_feature = private unnamed_addr constant [49 x i8] c"_Bool virtio_has_feature(uint64_t, unsigned int)\00", align 1
@.str.68 = private unnamed_addr constant [52 x i8] c"vdev->device_endian != VIRTIO_DEVICE_ENDIAN_UNKNOWN\00", align 1
@__PRETTY_FUNCTION__.virtio_is_big_endian = private unnamed_addr constant [43 x i8] c"_Bool virtio_is_big_endian(VirtIODevice *)\00", align 1

; Function Attrs: inlinehint nounwind sspstrong uwtable
define internal zeroext i1 @virtio_has_feature(i64 noundef %0, i32 noundef %1) #4 {
  %3 = alloca i64, align 8
  %4 = alloca i32, align 4
  store i64 %0, ptr %3, align 8
  store i32 %1, ptr %4, align 4
  %5 = load i32, ptr %4, align 4
  %6 = icmp ult i32 %5, 64
  br i1 %6, label %7, label %8

7:                                                ; preds = %2
  br label %9

8:                                                ; preds = %2
  call void @__assert_fail(ptr noundef @.str.45, ptr noundef @.str.43, i32 noundef 445, ptr noundef @__PRETTY_FUNCTION__.virtio_has_feature) #14
  unreachable

9:                                                ; preds = %7
  %10 = load i64, ptr %3, align 8
  %11 = load i32, ptr %4, align 4
  %12 = zext i32 %11 to i64
  %13 = shl i64 1, %12
  %14 = and i64 %10, %13
  %15 = icmp ne i64 %14, 0
  %16 = xor i1 %15, true
  %17 = xor i1 %16, true
  ret i1 %17
}

; Function Attrs: inlinehint nounwind sspstrong uwtable
define internal zeroext i1 @virtio_vdev_has_feature(ptr noundef %0, i32 noundef %1) #4 {
  %3 = alloca ptr, align 8
  %4 = alloca i32, align 4
  store ptr %0, ptr %3, align 8
  store i32 %1, ptr %4, align 4
  %5 = load ptr, ptr %3, align 8
  %6 = getelementptr inbounds nuw %struct.VirtIODevice, ptr %5, i32 0, i32 6
  %7 = load i64, ptr %6, align 8
  %8 = load i32, ptr %4, align 4
  %9 = call zeroext i1 @virtio_has_feature(i64 noundef %7, i32 noundef %8)
  ret i1 %9
}

; Function Attrs: inlinehint nounwind sspstrong uwtable
define internal void @pci_irq_deassert(ptr noundef %0) #4 {
  %2 = alloca ptr, align 8
  store ptr %0, ptr %2, align 8
  %3 = load ptr, ptr %2, align 8
  call void @pci_set_irq(ptr noundef %3, i32 noundef 0)
  ret void
}

; Function Attrs: inlinehint nounwind sspstrong uwtable
define internal zeroext i1 @virtio_is_big_endian(ptr noundef %0) #4 {
  %2 = alloca i1, align 1
  %3 = alloca ptr, align 8
  store ptr %0, ptr %3, align 8
  %4 = load ptr, ptr %3, align 8
  %5 = call zeroext i1 @virtio_vdev_has_feature(ptr noundef %4, i32 noundef 32)
  br i1 %5, label %20, label %6

6:                                                ; preds = %1
  %7 = load ptr, ptr %3, align 8
  %8 = getelementptr inbounds nuw %struct.VirtIODevice, ptr %7, i32 0, i32 27
  %9 = load i8, ptr %8, align 8
  %10 = zext i8 %9 to i32
  %11 = icmp ne i32 %10, 0
  br i1 %11, label %12, label %13

12:                                               ; preds = %6
  br label %14

13:                                               ; preds = %6
  call void @__assert_fail(ptr noundef @.str.68, ptr noundef @.str.43, i32 noundef 464, ptr noundef @__PRETTY_FUNCTION__.virtio_is_big_endian) #14
  unreachable

14:                                               ; preds = %12
  %15 = load ptr, ptr %3, align 8
  %16 = getelementptr inbounds nuw %struct.VirtIODevice, ptr %15, i32 0, i32 27
  %17 = load i8, ptr %16, align 8
  %18 = zext i8 %17 to i32
  %19 = icmp eq i32 %18, 2
  store i1 %19, ptr %2, align 1
  br label %21

20:                                               ; preds = %1
  store i1 false, ptr %2, align 1
  br label %21

21:                                               ; preds = %20, %14
  %22 = load i1, ptr %2, align 1
  ret i1 %22
}

; Function Attrs: nounwind sspstrong uwtable
define internal i32 @virtio_ioport_read(ptr noundef %0, i32 noundef %1) #0 {
  %3 = alloca ptr, align 8
  %4 = alloca i32, align 4
  %5 = alloca ptr, align 8
  %6 = alloca i32, align 4
  %7 = alloca i8, align 1
  %8 = alloca i8, align 1
  %9 = alloca i8, align 1
  %10 = alloca i8, align 1
  store ptr %0, ptr %3, align 8
  store i32 %1, ptr %4, align 4
  call void @llvm.lifetime.start.p0(i64 8, ptr %5) #13
  %11 = load ptr, ptr %3, align 8
  %12 = getelementptr inbounds nuw %struct.VirtIOPCIProxy, ptr %11, i32 0, i32 25
  %13 = call ptr @virtio_bus_get_device(ptr noundef %12)
  store ptr %13, ptr %5, align 8
  call void @llvm.lifetime.start.p0(i64 4, ptr %6) #13
  store i32 -1, ptr %6, align 4
  %14 = load i32, ptr %4, align 4
  switch i32 %14, label %78 [
    i32 0, label %15
    i32 4, label %20
    i32 8, label %25
    i32 12, label %34
    i32 14, label %41
    i32 18, label %46
    i32 19, label %51
    i32 20, label %65
    i32 22, label %70
  ]

15:                                               ; preds = %2
  %16 = load ptr, ptr %5, align 8
  %17 = getelementptr inbounds nuw %struct.VirtIODevice, ptr %16, i32 0, i32 5
  %18 = load i64, ptr %17, align 8
  %19 = trunc i64 %18 to i32
  store i32 %19, ptr %6, align 4
  br label %79

20:                                               ; preds = %2
  %21 = load ptr, ptr %5, align 8
  %22 = getelementptr inbounds nuw %struct.VirtIODevice, ptr %21, i32 0, i32 6
  %23 = load i64, ptr %22, align 8
  %24 = trunc i64 %23 to i32
  store i32 %24, ptr %6, align 4
  br label %79

25:                                               ; preds = %2
  %26 = load ptr, ptr %5, align 8
  %27 = load ptr, ptr %5, align 8
  %28 = getelementptr inbounds nuw %struct.VirtIODevice, ptr %27, i32 0, i32 4
  %29 = load i16, ptr %28, align 2
  %30 = zext i16 %29 to i32
  %31 = call i64 @virtio_queue_get_addr(ptr noundef %26, i32 noundef %30)
  %32 = lshr i64 %31, 12
  %33 = trunc i64 %32 to i32
  store i32 %33, ptr %6, align 4
  br label %79

34:                                               ; preds = %2
  %35 = load ptr, ptr %5, align 8
  %36 = load ptr, ptr %5, align 8
  %37 = getelementptr inbounds nuw %struct.VirtIODevice, ptr %36, i32 0, i32 4
  %38 = load i16, ptr %37, align 2
  %39 = zext i16 %38 to i32
  %40 = call i32 @virtio_queue_get_num(ptr noundef %35, i32 noundef %39)
  store i32 %40, ptr %6, align 4
  br label %79

41:                                               ; preds = %2
  %42 = load ptr, ptr %5, align 8
  %43 = getelementptr inbounds nuw %struct.VirtIODevice, ptr %42, i32 0, i32 4
  %44 = load i16, ptr %43, align 2
  %45 = zext i16 %44 to i32
  store i32 %45, ptr %6, align 4
  br label %79

46:                                               ; preds = %2
  %47 = load ptr, ptr %5, align 8
  %48 = getelementptr inbounds nuw %struct.VirtIODevice, ptr %47, i32 0, i32 2
  %49 = load i8, ptr %48, align 8
  %50 = zext i8 %49 to i32
  store i32 %50, ptr %6, align 4
  br label %79

51:                                               ; preds = %2
  br label %52

52:                                               ; preds = %51
  br i1 false, label %53, label %54

53:                                               ; preds = %52
  call void @qemu_build_not_reached_always() #15, !srcloc !23
  unreachable

54:                                               ; preds = %52
  %55 = load ptr, ptr %5, align 8
  %56 = getelementptr inbounds nuw %struct.VirtIODevice, ptr %55, i32 0, i32 3
  store i8 0, ptr %9, align 1
  %57 = load i8, ptr %9, align 1
  %58 = atomicrmw xchg ptr %56, i8 %57 seq_cst, align 1
  store i8 %58, ptr %10, align 1
  %59 = load i8, ptr %10, align 1
  store i8 %59, ptr %8, align 1
  %60 = load i8, ptr %8, align 1
  store i8 %60, ptr %7, align 1
  %61 = load i8, ptr %7, align 1
  %62 = zext i8 %61 to i32
  store i32 %62, ptr %6, align 4
  %63 = load ptr, ptr %3, align 8
  %64 = getelementptr inbounds nuw %struct.VirtIOPCIProxy, ptr %63, i32 0, i32 0
  call void @pci_irq_deassert(ptr noundef %64)
  br label %79

65:                                               ; preds = %2
  %66 = load ptr, ptr %5, align 8
  %67 = getelementptr inbounds nuw %struct.VirtIODevice, ptr %66, i32 0, i32 10
  %68 = load i16, ptr %67, align 8
  %69 = zext i16 %68 to i32
  store i32 %69, ptr %6, align 4
  br label %79

70:                                               ; preds = %2
  %71 = load ptr, ptr %5, align 8
  %72 = load ptr, ptr %5, align 8
  %73 = getelementptr inbounds nuw %struct.VirtIODevice, ptr %72, i32 0, i32 4
  %74 = load i16, ptr %73, align 2
  %75 = zext i16 %74 to i32
  %76 = call zeroext i16 @virtio_queue_vector(ptr noundef %71, i32 noundef %75)
  %77 = zext i16 %76 to i32
  store i32 %77, ptr %6, align 4
  br label %79

78:                                               ; preds = %2
  br label %79

79:                                               ; preds = %78, %70, %65, %54, %46, %41, %34, %25, %20, %15
  %80 = load i32, ptr %6, align 4
  call void @llvm.lifetime.end.p0(i64 4, ptr %6) #13
  call void @llvm.lifetime.end.p0(i64 8, ptr %5) #13
  ret i32 %80
}

; Function Attrs: inlinehint nounwind sspstrong uwtable
define internal ptr @virtio_bus_get_device(ptr noundef %0) #4 {
  %2 = alloca ptr, align 8
  %3 = alloca ptr, align 8
  %4 = alloca ptr, align 8
  %5 = alloca ptr, align 8
  store ptr %0, ptr %2, align 8
  call void @llvm.lifetime.start.p0(i64 8, ptr %3) #13
  %6 = load ptr, ptr %2, align 8
  %7 = getelementptr inbounds nuw %struct.VirtioBusState, ptr %6, i32 0, i32 0
  store ptr %7, ptr %3, align 8
  call void @llvm.lifetime.start.p0(i64 8, ptr %4) #13
  %8 = load ptr, ptr %3, align 8
  %9 = getelementptr inbounds nuw %struct.BusState, ptr %8, i32 0, i32 8
  %10 = load ptr, ptr %9, align 8
  store ptr %10, ptr %4, align 8
  call void @llvm.lifetime.start.p0(i64 8, ptr %5) #13
  %11 = load ptr, ptr %4, align 8
  %12 = icmp ne ptr %11, null
  br i1 %12, label %13, label %17

13:                                               ; preds = %1
  %14 = load ptr, ptr %4, align 8
  %15 = getelementptr inbounds nuw %struct.BusChild, ptr %14, i32 0, i32 1
  %16 = load ptr, ptr %15, align 8
  br label %18

17:                                               ; preds = %1
  br label %18

18:                                               ; preds = %17, %13
  %19 = phi ptr [ %16, %13 ], [ null, %17 ]
  store ptr %19, ptr %5, align 8
  %20 = load ptr, ptr %5, align 8
  call void @llvm.lifetime.end.p0(i64 8, ptr %5) #13
  call void @llvm.lifetime.end.p0(i64 8, ptr %4) #13
  call void @llvm.lifetime.end.p0(i64 8, ptr %3) #13
  ret ptr %20
}

; Function Attrs: nounwind sspstrong uwtable
define internal i64 @virtio_pci_config_read(ptr noundef %0, i64 noundef %1, i32 noundef %2) #0 {
  %4 = alloca i64, align 8
  %5 = alloca ptr, align 8
  %6 = alloca i64, align 8
  %7 = alloca i32, align 4
  %8 = alloca ptr, align 8
  %9 = alloca ptr, align 8
  %10 = alloca i32, align 4
  %11 = alloca i64, align 8
  %12 = alloca i32, align 4
  store ptr %0, ptr %5, align 8
  store i64 %1, ptr %6, align 8
  store i32 %2, ptr %7, align 4
  call void @llvm.lifetime.start.p0(i64 8, ptr %8) #13
  %13 = load ptr, ptr %5, align 8
  store ptr %13, ptr %8, align 8
  call void @llvm.lifetime.start.p0(i64 8, ptr %9) #13
  %14 = load ptr, ptr %8, align 8
  %15 = getelementptr inbounds nuw %struct.VirtIOPCIProxy, ptr %14, i32 0, i32 25
  %16 = call ptr @virtio_bus_get_device(ptr noundef %15)
  store ptr %16, ptr %9, align 8
  call void @llvm.lifetime.start.p0(i64 4, ptr %10) #13
  %17 = load ptr, ptr %8, align 8
  %18 = getelementptr inbounds nuw %struct.VirtIOPCIProxy, ptr %17, i32 0, i32 0
  %19 = call i32 @msix_enabled(ptr noundef %18)
  %20 = icmp ne i32 %19, 0
  %21 = select i1 %20, i32 24, i32 20
  store i32 %21, ptr %10, align 4
  call void @llvm.lifetime.start.p0(i64 8, ptr %11) #13
  store i64 0, ptr %11, align 8
  %22 = load ptr, ptr %9, align 8
  %23 = icmp eq ptr %22, null
  br i1 %23, label %24, label %25

24:                                               ; preds = %3
  store i64 -1, ptr %4, align 8
  store i32 1, ptr %12, align 4
  br label %78

25:                                               ; preds = %3
  %26 = load i64, ptr %6, align 8
  %27 = load i32, ptr %10, align 4
  %28 = zext i32 %27 to i64
  %29 = icmp ult i64 %26, %28
  br i1 %29, label %30, label %36

30:                                               ; preds = %25
  %31 = load ptr, ptr %8, align 8
  %32 = load i64, ptr %6, align 8
  %33 = trunc i64 %32 to i32
  %34 = call i32 @virtio_ioport_read(ptr noundef %31, i32 noundef %33)
  %35 = zext i32 %34 to i64
  store i64 %35, ptr %4, align 8
  store i32 1, ptr %12, align 4
  br label %78

36:                                               ; preds = %25
  %37 = load i32, ptr %10, align 4
  %38 = zext i32 %37 to i64
  %39 = load i64, ptr %6, align 8
  %40 = sub i64 %39, %38
  store i64 %40, ptr %6, align 8
  %41 = load i32, ptr %7, align 4
  switch i32 %41, label %76 [
    i32 1, label %42
    i32 2, label %48
    i32 4, label %62
  ]

42:                                               ; preds = %36
  %43 = load ptr, ptr %9, align 8
  %44 = load i64, ptr %6, align 8
  %45 = trunc i64 %44 to i32
  %46 = call i32 @virtio_config_readb(ptr noundef %43, i32 noundef %45)
  %47 = zext i32 %46 to i64
  store i64 %47, ptr %11, align 8
  br label %76

48:                                               ; preds = %36
  %49 = load ptr, ptr %9, align 8
  %50 = load i64, ptr %6, align 8
  %51 = trunc i64 %50 to i32
  %52 = call i32 @virtio_config_readw(ptr noundef %49, i32 noundef %51)
  %53 = zext i32 %52 to i64
  store i64 %53, ptr %11, align 8
  %54 = load ptr, ptr %9, align 8
  %55 = call zeroext i1 @virtio_is_big_endian(ptr noundef %54)
  br i1 %55, label %56, label %61

56:                                               ; preds = %48
  %57 = load i64, ptr %11, align 8
  %58 = trunc i64 %57 to i16
  %59 = call i16 @llvm.bswap.i16(i16 %58)
  %60 = zext i16 %59 to i64
  store i64 %60, ptr %11, align 8
  br label %61

61:                                               ; preds = %56, %48
  br label %76

62:                                               ; preds = %36
  %63 = load ptr, ptr %9, align 8
  %64 = load i64, ptr %6, align 8
  %65 = trunc i64 %64 to i32
  %66 = call i32 @virtio_config_readl(ptr noundef %63, i32 noundef %65)
  %67 = zext i32 %66 to i64
  store i64 %67, ptr %11, align 8
  %68 = load ptr, ptr %9, align 8
  %69 = call zeroext i1 @virtio_is_big_endian(ptr noundef %68)
  br i1 %69, label %70, label %75

70:                                               ; preds = %62
  %71 = load i64, ptr %11, align 8
  %72 = trunc i64 %71 to i32
  %73 = call i32 @llvm.bswap.i32(i32 %72)
  %74 = zext i32 %73 to i64
  store i64 %74, ptr %11, align 8
  br label %75

75:                                               ; preds = %70, %62
  br label %76

76:                                               ; preds = %36, %75, %61, %42
  %77 = load i64, ptr %11, align 8
  store i64 %77, ptr %4, align 8
  store i32 1, ptr %12, align 4
  br label %78

78:                                               ; preds = %76, %30, %24
  call void @llvm.lifetime.end.p0(i64 8, ptr %11) #13
  call void @llvm.lifetime.end.p0(i64 4, ptr %10) #13
  call void @llvm.lifetime.end.p0(i64 8, ptr %9) #13
  call void @llvm.lifetime.end.p0(i64 8, ptr %8) #13
  %79 = load i64, ptr %4, align 8
  ret i64 %79
}