; Function Attrs: nounwind sspstrong uwtable
define internal range(i64 -1, 4294967296) i64 @virtio_pci_config_read(ptr noundef %0, i64 noundef %1, i32 noundef %2) #0 {
  %4 = getelementptr i8, ptr %0, i64 34160
  %.val = load ptr, ptr %4, align 8
  %.not.i = icmp eq ptr %.val, null
  br i1 %.not.i, label %virtio_bus_get_device.exit.thread, label %virtio_bus_get_device.exit

virtio_bus_get_device.exit.thread:                ; preds = %3
  %5 = tail call i32 @msix_enabled(ptr noundef nonnull %0) #15
  br label %virtio_is_big_endian.exit.thread

virtio_bus_get_device.exit:                       ; preds = %3
  %6 = getelementptr inbounds nuw i8, ptr %.val, i64 16
  %7 = load ptr, ptr %6, align 8
  %8 = tail call i32 @msix_enabled(ptr noundef nonnull %0) #15
  %9 = icmp eq ptr %7, null
  br i1 %9, label %virtio_is_big_endian.exit.thread, label %10

10:                                               ; preds = %virtio_bus_get_device.exit
  %.not = icmp eq i32 %8, 0
  %11 = select i1 %.not, i64 20, i64 24
  %12 = icmp ult i64 %1, %11
  br i1 %12, label %13, label %62

13:                                               ; preds = %10
  %14 = trunc nuw nsw i64 %1 to i32
  %.val.i = load ptr, ptr %4, align 8
  %.not.i.i = icmp eq ptr %.val.i, null
  br i1 %.not.i.i, label %virtio_bus_get_device.exit.i, label %15

15:                                               ; preds = %13
  %16 = getelementptr inbounds nuw i8, ptr %.val.i, i64 16
  %17 = load ptr, ptr %16, align 8
  br label %virtio_bus_get_device.exit.i

virtio_bus_get_device.exit.i:                     ; preds = %15, %13
  %18 = phi ptr [ %17, %15 ], [ null, %13 ]
  switch i32 %14, label %virtio_ioport_read.exit [
    i32 0, label %19
    i32 4, label %23
    i32 8, label %27
    i32 12, label %34
    i32 14, label %39
    i32 18, label %43
    i32 19, label %47
    i32 20, label %51
    i32 22, label %55
  ]

19:                                               ; preds = %virtio_bus_get_device.exit.i
  %20 = getelementptr inbounds nuw i8, ptr %18, i64 168
  %21 = load i64, ptr %20, align 8
  %22 = trunc i64 %21 to i32
  br label %virtio_ioport_read.exit

23:                                               ; preds = %virtio_bus_get_device.exit.i
  %24 = getelementptr inbounds nuw i8, ptr %18, i64 176
  %25 = load i64, ptr %24, align 8
  %26 = trunc i64 %25 to i32
  br label %virtio_ioport_read.exit

27:                                               ; preds = %virtio_bus_get_device.exit.i
  %28 = getelementptr inbounds nuw i8, ptr %18, i64 162
  %29 = load i16, ptr %28, align 2
  %30 = zext i16 %29 to i32
  %31 = tail call i64 @virtio_queue_get_addr(ptr noundef %18, i32 noundef %30) #15
  %32 = lshr i64 %31, 12
  %33 = trunc i64 %32 to i32
  br label %virtio_ioport_read.exit

34:                                               ; preds = %virtio_bus_get_device.exit.i
  %35 = getelementptr inbounds nuw i8, ptr %18, i64 162
  %36 = load i16, ptr %35, align 2
  %37 = zext i16 %36 to i32
  %38 = tail call i32 @virtio_queue_get_num(ptr noundef %18, i32 noundef %37) #15
  br label %virtio_ioport_read.exit

39:                                               ; preds = %virtio_bus_get_device.exit.i
  %40 = getelementptr inbounds nuw i8, ptr %18, i64 162
  %41 = load i16, ptr %40, align 2
  %42 = zext i16 %41 to i32
  br label %virtio_ioport_read.exit

43:                                               ; preds = %virtio_bus_get_device.exit.i
  %44 = getelementptr inbounds nuw i8, ptr %18, i64 160
  %45 = load i8, ptr %44, align 8
  %46 = zext i8 %45 to i32
  br label %virtio_ioport_read.exit

47:                                               ; preds = %virtio_bus_get_device.exit.i
  %48 = getelementptr inbounds nuw i8, ptr %18, i64 161
  %49 = atomicrmw xchg ptr %48, i8 0 seq_cst, align 1
  %50 = zext i8 %49 to i32
  tail call void @pci_set_irq(ptr noundef nonnull %0, i32 noundef 0) #15
  br label %virtio_ioport_read.exit

51:                                               ; preds = %virtio_bus_get_device.exit.i
  %52 = getelementptr inbounds nuw i8, ptr %18, i64 208
  %53 = load i16, ptr %52, align 8
  %54 = zext i16 %53 to i32
  br label %virtio_ioport_read.exit

55:                                               ; preds = %virtio_bus_get_device.exit.i
  %56 = getelementptr inbounds nuw i8, ptr %18, i64 162
  %57 = load i16, ptr %56, align 2
  %58 = zext i16 %57 to i32
  %59 = tail call zeroext i16 @virtio_queue_vector(ptr noundef %18, i32 noundef %58) #15
  %60 = zext i16 %59 to i32
  br label %virtio_ioport_read.exit

virtio_ioport_read.exit:                          ; preds = %virtio_bus_get_device.exit.i, %19, %23, %27, %34, %39, %43, %47, %51, %55
  %.0.i = phi i32 [ -1, %virtio_bus_get_device.exit.i ], [ %60, %55 ], [ %54, %51 ], [ %50, %47 ], [ %46, %43 ], [ %42, %39 ], [ %38, %34 ], [ %33, %27 ], [ %26, %23 ], [ %22, %19 ]
  %61 = zext i32 %.0.i to i64
  br label %virtio_is_big_endian.exit.thread

62:                                               ; preds = %10
  %63 = sub nuw i64 %1, %11
  switch i32 %2, label %virtio_is_big_endian.exit.thread [
    i32 1, label %64
    i32 2, label %68
    i32 4, label %82
  ]

64:                                               ; preds = %62
  %65 = trunc i64 %63 to i32
  %66 = tail call i32 @virtio_config_readb(ptr noundef nonnull %7, i32 noundef %65) #15
  %67 = zext i32 %66 to i64
  br label %virtio_is_big_endian.exit.thread

68:                                               ; preds = %62
  %69 = trunc i64 %63 to i32
  %70 = tail call i32 @virtio_config_readw(ptr noundef nonnull %7, i32 noundef %69) #15
  %71 = zext i32 %70 to i64
  %72 = getelementptr i8, ptr %7, i64 176
  %.val.i26 = load i64, ptr %72, align 8
  %73 = and i64 %.val.i26, 4294967296
  %.not5.i = icmp eq i64 %73, 0
  br i1 %.not5.i, label %74, label %virtio_is_big_endian.exit.thread

74:                                               ; preds = %68
  %75 = getelementptr inbounds nuw i8, ptr %7, i64 456
  %76 = load i8, ptr %75, align 8
  switch i8 %76, label %virtio_is_big_endian.exit.thread [
    i8 0, label %77
    i8 2, label %78
  ]

77:                                               ; preds = %74
  tail call void @__assert_fail(ptr noundef nonnull @.str.68, ptr noundef nonnull @.str.43, i32 noundef 464, ptr noundef nonnull @__PRETTY_FUNCTION__.virtio_is_big_endian) #16
  unreachable

78:                                               ; preds = %74
  %79 = trunc i32 %70 to i16
  %80 = tail call i16 @llvm.bswap.i16(i16 %79)
  %81 = zext i16 %80 to i64
  br label %virtio_is_big_endian.exit.thread

82:                                               ; preds = %62
  %83 = trunc i64 %63 to i32
  %84 = tail call i32 @virtio_config_readl(ptr noundef nonnull %7, i32 noundef %83) #15
  %85 = zext i32 %84 to i64
  %86 = getelementptr i8, ptr %7, i64 176
  %.val.i29 = load i64, ptr %86, align 8
  %87 = and i64 %.val.i29, 4294967296
  %.not5.i30 = icmp eq i64 %87, 0
  br i1 %.not5.i30, label %88, label %virtio_is_big_endian.exit.thread

88:                                               ; preds = %82
  %89 = getelementptr inbounds nuw i8, ptr %7, i64 456
  %90 = load i8, ptr %89, align 8
  switch i8 %90, label %virtio_is_big_endian.exit.thread [
    i8 0, label %91
    i8 2, label %92
  ]

91:                                               ; preds = %88
  tail call void @__assert_fail(ptr noundef nonnull @.str.68, ptr noundef nonnull @.str.43, i32 noundef 464, ptr noundef nonnull @__PRETTY_FUNCTION__.virtio_is_big_endian) #16
  unreachable

92:                                               ; preds = %88
  %93 = tail call i32 @llvm.bswap.i32(i32 %84)
  %94 = zext i32 %93 to i64
  br label %virtio_is_big_endian.exit.thread

virtio_is_big_endian.exit.thread:                 ; preds = %88, %74, %82, %68, %virtio_bus_get_device.exit.thread, %62, %64, %78, %92, %virtio_bus_get_device.exit, %virtio_ioport_read.exit
  %.022 = phi i64 [ %61, %virtio_ioport_read.exit ], [ -1, %virtio_bus_get_device.exit ], [ 0, %62 ], [ %94, %92 ], [ %81, %78 ], [ %67, %64 ], [ -1, %virtio_bus_get_device.exit.thread ], [ %71, %68 ], [ %85, %82 ], [ %71, %74 ], [ %85, %88 ]
  ret i64 %.022
}